target datalayout = "e-m:e-p270:32:32-p271:32:32-p272:64:64-i64:64-i128:128-f80:128-n8:16:32:64-S128"
target triple = "x86_64-unknown-linux-gnu"

%struct.ecc_point = type { [1 x %struct.sp_int], [1 x %struct.sp_int], [1 x %struct.sp_int] }
%struct.sp_int = type { i32, i32, [129 x i64] }

; Function Attrs: nounwind uwtable
define i32 @wc_ecc_copy_point(ptr noundef %p, ptr noundef %r) #0 {
entry:
  %retval = alloca i32, align 4
  %p.addr = alloca ptr, align 8
  %r.addr = alloca ptr, align 8
  %ret = alloca i32, align 4
  store ptr %p, ptr %p.addr, align 8
  store ptr %r, ptr %r.addr, align 8
  %0 = load ptr, ptr %p.addr, align 8
  %cmp = icmp eq ptr %0, null
  br i1 %cmp, label %if.then, label %lor.lhs.false

lor.lhs.false:                                    ; preds = %entry
  %1 = load ptr, ptr %r.addr, align 8
  %cmp1 = icmp eq ptr %1, null
  br i1 %cmp1, label %if.then, label %if.end

if.then:                                          ; preds = %lor.lhs.false, %entry
  store i32 -170, ptr %retval, align 4
  br label %return

if.end:                                           ; preds = %lor.lhs.false
  %2 = load ptr, ptr %p.addr, align 8
  %x = getelementptr inbounds %struct.ecc_point, ptr %2, i32 0, i32 0
  %arraydecay = getelementptr inbounds [1 x %struct.sp_int], ptr %x, i64 0, i64 0
  %3 = load ptr, ptr %r.addr, align 8
  %x2 = getelementptr inbounds %struct.ecc_point, ptr %3, i32 0, i32 0
  %arraydecay3 = getelementptr inbounds [1 x %struct.sp_int], ptr %x2, i64 0, i64 0
  %call = call i32 @sp_copy(ptr noundef %arraydecay, ptr noundef %arraydecay3)
  store i32 %call, ptr %ret, align 4
  %4 = load i32, ptr %ret, align 4
  %cmp4 = icmp ne i32 %4, 0
  br i1 %cmp4, label %if.then5, label %if.end6

if.then5:                                         ; preds = %if.end
  %5 = load i32, ptr %ret, align 4
  store i32 %5, ptr %retval, align 4
  br label %return

if.end6:                                          ; preds = %if.end
  %6 = load ptr, ptr %p.addr, align 8
  %y = getelementptr inbounds %struct.ecc_point, ptr %6, i32 0, i32 1
  %arraydecay7 = getelementptr inbounds [1 x %struct.sp_int], ptr %y, i64 0, i64 0
  %7 = load ptr, ptr %r.addr, align 8
  %y8 = getelementptr inbounds %struct.ecc_point, ptr %7, i32 0, i32 1
  %arraydecay9 = getelementptr inbounds [1 x %struct.sp_int], ptr %y8, i64 0, i64 0
  %call10 = call i32 @sp_copy(ptr noundef %arraydecay7, ptr noundef %arraydecay9)
  store i32 %call10, ptr %ret, align 4
  %8 = load i32, ptr %ret, align 4
  %cmp11 = icmp ne i32 %8, 0
  br i1 %cmp11, label %if.then12, label %if.end13

if.then12:                                        ; preds = %if.end6
  %9 = load i32, ptr %ret, align 4
  store i32 %9, ptr %retval, align 4
  br label %return

if.end13:                                         ; preds = %if.end6
  %10 = load ptr, ptr %p.addr, align 8
  %z = getelementptr inbounds %struct.ecc_point, ptr %10, i32 0, i32 2
  %arraydecay14 = getelementptr inbounds [1 x %struct.sp_int], ptr %z, i64 0, i64 0
  %11 = load ptr, ptr %r.addr, align 8
  %z15 = getelementptr inbounds %struct.ecc_point, ptr %11, i32 0, i32 2
  %arraydecay16 = getelementptr inbounds [1 x %struct.sp_int], ptr %z15, i64 0, i64 0
  %call17 = call i32 @sp_copy(ptr noundef %arraydecay14, ptr noundef %arraydecay16)
  store i32 %call17, ptr %ret, align 4
  %12 = load i32, ptr %ret, align 4
  %cmp18 = icmp ne i32 %12, 0
  br i1 %cmp18, label %if.then19, label %if.end20

if.then19:                                        ; preds = %if.end13
  %13 = load i32, ptr %ret, align 4
  store i32 %13, ptr %retval, align 4
  br label %return

if.end20:                                         ; preds = %if.end13
  store i32 0, ptr %retval, align 4
  br label %return

return:                                           ; preds = %if.end20, %if.then19, %if.then12, %if.then5, %if.then
  %14 = load i32, ptr %retval, align 4
  ret i32 %14
}